target datalayout = "e-m:e-p270:32:32-p271:32:32-p272:64:64-i64:64-i128:128-f80:128-n8:16:32:64-S128"
target triple = "x86_64-pc-linux-gnu"

%struct.crypto_ex_data_st = type { ptr, ptr }
%struct.ui_st = type { ptr, ptr, ptr, %struct.crypto_ex_data_st, i32, ptr }

@tty_in = internal global ptr null, align 8
@stdin = external global ptr, align 8
@tty_out = internal global ptr null, align 8
@stderr = external global ptr, align 8

; Function Attrs: nounwind uwtable
define internal i32 @close_console(ptr noundef %0) #0 {
  %2 = alloca ptr, align 8
  %3 = alloca i32, align 4
  store ptr %0, ptr %2, align 8, !tbaa !8
  call void @llvm.lifetime.start.p0(i64 4, ptr %3) #8
  store i32 1, ptr %3, align 4, !tbaa !17
  %4 = load ptr, ptr @tty_in, align 8, !tbaa !18
  %5 = load ptr, ptr @stdin, align 8, !tbaa !18
  %6 = icmp ne ptr %4, %5
  br i1 %6, label %7, label %10

7:                                                ; preds = %1
  %8 = load ptr, ptr @tty_in, align 8, !tbaa !18
  %9 = call i32 @fclose(ptr noundef %8)
  br label %10

10:                                               ; preds = %7, %1
  %11 = load ptr, ptr @tty_out, align 8, !tbaa !18
  %12 = load ptr, ptr @stderr, align 8, !tbaa !18
  %13 = icmp ne ptr %11, %12
  br i1 %13, label %14, label %17

14:                                               ; preds = %10
  %15 = load ptr, ptr @tty_out, align 8, !tbaa !18
  %16 = call i32 @fclose(ptr noundef %15)
  br label %17

17:                                               ; preds = %14, %10
  %18 = load ptr, ptr %2, align 8, !tbaa !8
  %19 = getelementptr inbounds nuw %struct.ui_st, ptr %18, i32 0, i32 5
  %20 = load ptr, ptr %19, align 8, !tbaa !10
  %21 = call i32 @CRYPTO_THREAD_unlock(ptr noundef %20)
  %22 = load i32, ptr %3, align 4, !tbaa !17
  call void @llvm.lifetime.end.p0(i64 4, ptr %3) #8
  ret i32 %22
}