; Function Attrs: nounwind uwtable
define internal noundef i32 @close_console(ptr noundef readonly captures(none) %0) #3 {
  %2 = load ptr, ptr @tty_in, align 8, !tbaa !15
  %3 = load ptr, ptr @stdin, align 8, !tbaa !15
  %.not = icmp eq ptr %2, %3
  br i1 %.not, label %6, label %4

4:                                                ; preds = %1
  %5 = tail call i32 @fclose(ptr noundef %2)
  br label %6

6:                                                ; preds = %4, %1
  %7 = load ptr, ptr @tty_out, align 8, !tbaa !15
  %8 = load ptr, ptr @stderr, align 8, !tbaa !15
  %.not2 = icmp eq ptr %7, %8
  br i1 %.not2, label %11, label %9

9:                                                ; preds = %6
  %10 = tail call i32 @fclose(ptr noundef %7)
  br label %11

11:                                               ; preds = %9, %6
  %12 = getelementptr inbounds nuw i8, ptr %0, i64 48
  %13 = load ptr, ptr %12, align 8, !tbaa !8
  %14 = tail call i32 @CRYPTO_THREAD_unlock(ptr noundef %13) #15
  ret i32 1
}